; Function Attrs: nounwind uwtable
define internal noundef range(i32 1, 4) i32 @io_pclose(ptr noundef %0) #0 {
  %2 = tail call ptr @luaL_checkudata(ptr noundef %0, i32 noundef 1, ptr noundef nonnull @.str.5) #9
  store ptr null, ptr %2, align 8, !tbaa !4
  %3 = tail call ptr @__errno_location() #10
  %4 = load i32, ptr %3, align 4, !tbaa !9
  tail call void @lua_pushnil(ptr noundef %0) #9
  %5 = tail call ptr @strerror(i32 noundef %4) #9
  %6 = tail call ptr (ptr, ptr, ...) @lua_pushfstring(ptr noundef %0, ptr noundef nonnull @.str.19, ptr noundef %5) #9
  %7 = sext i32 %4 to i64
  tail call void @lua_pushinteger(ptr noundef %0, i64 noundef %7) #9
  ret i32 3
}